target datalayout = "e-m:e-p270:32:32-p271:32:32-p272:64:64-i64:64-i128:128-f80:128-n8:16:32:64-S128"
target triple = "x86_64-pc-linux-gnu"

%struct._object = type { i64, ptr }
%"class.pybind11::object" = type { %"class.pybind11::handle" }
%"class.pybind11::handle" = type { ptr }
%"class.pybind11::none" = type { %"class.pybind11::object" }
%"class.std::tuple.163" = type { i8 }
%"struct.pybind11::detail::function_record" = type <{ ptr, ptr, ptr, %"class.std::vector.178", ptr, [3 x ptr], ptr, i8, i16, i8, i16, i16, i16, [6 x i8], ptr, %"class.pybind11::handle", %"class.pybind11::handle", ptr }>
%"class.std::vector.178" = type { %"struct.std::_Vector_base.179" }
%"struct.std::_Vector_base.179" = type { %"struct.std::_Vector_base<pybind11::detail::argument_record, std::allocator<pybind11::detail::argument_record>>::_Vector_impl" }
%"struct.std::_Vector_base<pybind11::detail::argument_record, std::allocator<pybind11::detail::argument_record>>::_Vector_impl" = type { %"struct.std::_Vector_base<pybind11::detail::argument_record, std::allocator<pybind11::detail::argument_record>>::_Vector_impl_data" }
%"struct.std::_Vector_base<pybind11::detail::argument_record, std::allocator<pybind11::detail::argument_record>>::_Vector_impl_data" = type { ptr, ptr, ptr }
%"struct.pybind11::detail::function_call" = type { ptr, %"class.std::vector.188", %"class.std::vector.193", %"class.pybind11::object", %"class.pybind11::object", %"class.pybind11::handle", %"class.pybind11::handle" }
%"class.std::vector.188" = type { %"struct.std::_Vector_base.189" }
%"struct.std::_Vector_base.189" = type { %"struct.std::_Vector_base<pybind11::handle, std::allocator<pybind11::handle>>::_Vector_impl" }
%"struct.std::_Vector_base<pybind11::handle, std::allocator<pybind11::handle>>::_Vector_impl" = type { %"struct.std::_Vector_base<pybind11::handle, std::allocator<pybind11::handle>>::_Vector_impl_data" }
%"struct.std::_Vector_base<pybind11::handle, std::allocator<pybind11::handle>>::_Vector_impl_data" = type { ptr, ptr, ptr }
%"class.std::vector.193" = type { %"struct.std::_Bvector_base" }
%"struct.std::_Bvector_base" = type { %"struct.std::_Bvector_base<std::allocator<bool>>::_Bvector_impl" }
%"struct.std::_Bvector_base<std::allocator<bool>>::_Bvector_impl" = type { %"struct.std::_Bvector_base<std::allocator<bool>>::_Bvector_impl_data" }
%"struct.std::_Bvector_base<std::allocator<bool>>::_Bvector_impl_data" = type { %"struct.std::_Bit_iterator", %"struct.std::_Bit_iterator", ptr }
%"struct.std::_Bit_iterator" = type { %"struct.std::_Bit_iterator_base.base", [4 x i8] }
%"struct.std::_Bit_iterator_base.base" = type <{ ptr, i32 }>
%"struct.pybind11::detail::void_type" = type { i8 }
%"class.pybind11::detail::argument_loader.343" = type { %"class.std::tuple.163" }
%class.anon.345 = type { i8 }
%class.anon.348 = type { i8 }
%struct.capture.347 = type { %class.anon.345 }

@_Py_NoneStruct = external global %struct._object, align 8

; Function Attrs: mustprogress uwtable
define internal void @_ZL10_Py_DECREFP7_object(ptr noundef %0) #1 {
  %2 = alloca ptr, align 8
  store ptr %0, ptr %2, align 8
  %3 = load ptr, ptr %2, align 8
  %4 = getelementptr inbounds %struct._object, ptr %3, i32 0, i32 0
  %5 = load i64, ptr %4, align 8
  %6 = add nsw i64 %5, -1
  store i64 %6, ptr %4, align 8
  %7 = icmp ne i64 %6, 0
  br i1 %7, label %8, label %9

8:                                                ; preds = %1
  br label %11

9:                                                ; preds = %1
  %10 = load ptr, ptr %2, align 8
  call void @_Py_Dealloc(ptr noundef %10)
  br label %11

11:                                               ; preds = %9, %8
  ret void
}

; Function Attrs: mustprogress nounwind uwtable
define internal void @_ZL10_Py_INCREFP7_object(ptr noundef %0) #0 {
  %2 = alloca ptr, align 8
  store ptr %0, ptr %2, align 8
  %3 = load ptr, ptr %2, align 8
  %4 = getelementptr inbounds %struct._object, ptr %3, i32 0, i32 0
  %5 = load i64, ptr %4, align 8
  %6 = add nsw i64 %5, 1
  store i64 %6, ptr %4, align 8
  ret void
}

; Function Attrs: mustprogress uwtable
define internal void @_ZL11_Py_XDECREFP7_object(ptr noundef %0) #1 {
  %2 = alloca ptr, align 8
  store ptr %0, ptr %2, align 8
  %3 = load ptr, ptr %2, align 8
  %4 = icmp ne ptr %3, null
  br i1 %4, label %5, label %7

5:                                                ; preds = %1
  %6 = load ptr, ptr %2, align 8
  call void @_ZL10_Py_DECREFP7_object(ptr noundef %6)
  br label %7

7:                                                ; preds = %5, %1
  ret void
}

; Function Attrs: mustprogress uwtable
define internal void @_ZL11_Py_XINCREFP7_object(ptr noundef %0) #1 {
  %2 = alloca ptr, align 8
  store ptr %0, ptr %2, align 8
  %3 = load ptr, ptr %2, align 8
  %4 = icmp ne ptr %3, null
  br i1 %4, label %5, label %7

5:                                                ; preds = %1
  %6 = load ptr, ptr %2, align 8
  call void @_ZL10_Py_INCREFP7_object(ptr noundef %6)
  br label %7

7:                                                ; preds = %5, %1
  ret void
}

; Function Attrs: noreturn nounwind uwtable
define linkonce_odr hidden void @__clang_call_terminate(ptr noundef %0) #2 comdat {
  %2 = call ptr @__cxa_begin_catch(ptr %0) #16
  call void @_ZSt9terminatev() #18
  unreachable
}

; Function Attrs: mustprogress uwtable
define linkonce_odr hidden noundef nonnull align 8 dereferenceable(8) ptr @_ZNKR8pybind116handle7dec_refEv(ptr noundef nonnull align 8 dereferenceable(8) %0) #1 comdat align 2 {
  %2 = alloca ptr, align 8
  store ptr %0, ptr %2, align 8
  %3 = load ptr, ptr %2, align 8
  %4 = getelementptr inbounds %"class.pybind11::handle", ptr %3, i32 0, i32 0
  %5 = load ptr, ptr %4, align 8
  call void @_ZL11_Py_XDECREFP7_object(ptr noundef %5)
  ret ptr %3
}

; Function Attrs: mustprogress uwtable
define linkonce_odr hidden noundef nonnull align 8 dereferenceable(8) ptr @_ZNKR8pybind116handle7inc_refEv(ptr noundef nonnull align 8 dereferenceable(8) %0) #1 comdat align 2 {
  %2 = alloca ptr, align 8
  store ptr %0, ptr %2, align 8
  %3 = load ptr, ptr %2, align 8
  %4 = getelementptr inbounds %"class.pybind11::handle", ptr %3, i32 0, i32 0
  %5 = load ptr, ptr %4, align 8
  call void @_ZL11_Py_XINCREFP7_object(ptr noundef %5)
  ret ptr %3
}

; Function Attrs: mustprogress nounwind uwtable
define internal noundef i32 @"_ZZZ20test_submodule_eval_RN8pybind117module_EENK3$_0clEvENKUlvE_clEv"(ptr noundef nonnull align 1 dereferenceable(1) %0) #0 align 2 {
  %2 = alloca ptr, align 8
  store ptr %0, ptr %2, align 8
  ret i32 42
}

; Function Attrs: mustprogress nounwind uwtable
define linkonce_odr hidden void @_ZN8pybind116objectD2Ev(ptr noundef nonnull align 8 dereferenceable(8) %0) unnamed_addr #0 comdat align 2 personality ptr @__gxx_personality_v0 {
  %2 = alloca ptr, align 8
  store ptr %0, ptr %2, align 8
  %3 = load ptr, ptr %2, align 8
  %4 = invoke noundef nonnull align 8 dereferenceable(8) ptr @_ZNKR8pybind116handle7dec_refEv(ptr noundef nonnull align 8 dereferenceable(8) %3)
          to label %5 unwind label %6

5:                                                ; preds = %1
  ret void

6:                                                ; preds = %1
  %7 = landingpad { ptr, i32 }
          catch ptr null
  %8 = extractvalue { ptr, i32 } %7, 0
  call void @__clang_call_terminate(ptr %8) #18
  unreachable
}

; Function Attrs: mustprogress uwtable
define linkonce_odr hidden void @_ZN8pybind116objectC2ENS_6handleENS0_10borrowed_tE(ptr noundef nonnull align 8 dereferenceable(8) %0, ptr %1) unnamed_addr #1 comdat align 2 {
  %3 = alloca %"class.pybind11::handle", align 8
  %4 = alloca ptr, align 8
  %5 = getelementptr inbounds %"class.pybind11::handle", ptr %3, i32 0, i32 0
  store ptr %1, ptr %5, align 8
  store ptr %0, ptr %4, align 8
  %6 = load ptr, ptr %4, align 8
  call void @llvm.memcpy.p0.p0.i64(ptr align 8 %6, ptr align 8 %3, i64 8, i1 false)
  %7 = call noundef nonnull align 8 dereferenceable(8) ptr @_ZNKR8pybind116handle7inc_refEv(ptr noundef nonnull align 8 dereferenceable(8) %6)
  ret void
}

; Function Attrs: mustprogress uwtable
define internal noundef i32 @"_ZNO8pybind116detail15argument_loaderIJEE9call_implIiRZZ20test_submodule_eval_RNS_7module_EENK3$_0clEvEUlvE_TpTnmJENS0_9void_typeEEET_OT0_St16integer_sequenceImJXspT1_EEEOT2_"(ptr noundef nonnull align 1 dereferenceable(1) %0, ptr noundef nonnull align 1 dereferenceable(1) %1, ptr noundef nonnull align 1 dereferenceable(1) %2) #1 align 2 {
  %4 = alloca ptr, align 8
  %5 = alloca ptr, align 8
  %6 = alloca ptr, align 8
  store ptr %0, ptr %4, align 8
  store ptr %1, ptr %5, align 8
  store ptr %2, ptr %6, align 8
  %7 = load ptr, ptr %5, align 8
  %8 = call noundef i32 @"_ZZZ20test_submodule_eval_RN8pybind117module_EENK3$_0clEvENKUlvE_clEv"(ptr noundef nonnull align 1 dereferenceable(1) %7)
  ret i32 %8
}

; Function Attrs: mustprogress nounwind uwtable
define linkonce_odr hidden noundef zeroext i1 @_ZN8pybind116detail15argument_loaderIJEE18load_impl_sequenceERNS0_13function_callESt16integer_sequenceImJEE(ptr noundef nonnull align 8 dereferenceable(104) %0) #0 comdat align 2 {
  %2 = alloca ptr, align 8
  store ptr %0, ptr %2, align 8
  ret i1 true
}

; Function Attrs: mustprogress nounwind uwtable
define linkonce_odr hidden void @_ZN8pybind116detail18process_attributesIJEE8postcallERNS0_13function_callENS_6handleE(ptr noundef nonnull align 8 dereferenceable(104) %0, ptr %1) #0 comdat align 2 {
  %3 = alloca %"class.pybind11::handle", align 8
  %4 = alloca ptr, align 8
  %5 = alloca [1 x i32], align 4
  %6 = getelementptr inbounds %"class.pybind11::handle", ptr %3, i32 0, i32 0
  store ptr %1, ptr %6, align 8
  store ptr %0, ptr %4, align 8
  %7 = getelementptr inbounds [1 x i32], ptr %5, i64 0, i64 0
  store i32 0, ptr %7, align 4
  ret void
}

; Function Attrs: mustprogress uwtable
define linkonce_odr hidden ptr @_ZN8pybind116detail11type_casterIivE4castIiEENSt9enable_ifIXaaaantsr3std17is_floating_pointIT_EE5valuesr3std9is_signedIS5_EE5valuelestS5_Lm8EENS_6handleEE4typeES5_NS_19return_value_policyES6_(i32 noundef %0, i8 noundef zeroext %1, ptr %2) #1 comdat align 2 {
  %4 = alloca %"class.pybind11::handle", align 8
  %5 = alloca %"class.pybind11::handle", align 8
  %6 = alloca i32, align 4
  %7 = alloca i8, align 1
  %8 = getelementptr inbounds %"class.pybind11::handle", ptr %5, i32 0, i32 0
  store ptr %2, ptr %8, align 8
  store i32 %0, ptr %6, align 4
  store i8 %1, ptr %7, align 1
  %9 = load i32, ptr %6, align 4
  %10 = sext i32 %9 to i64
  %11 = call ptr @PyLong_FromSsize_t(i64 noundef %10)
  call void @_ZN8pybind116handleC2IP7_objectTnNSt9enable_ifIXsr6detail25is_pyobj_ptr_or_nullptr_tIT_EE5valueEiE4typeELi0EEES5_(ptr noundef nonnull align 8 dereferenceable(8) %4, ptr noundef %11)
  %12 = getelementptr inbounds %"class.pybind11::handle", ptr %4, i32 0, i32 0
  %13 = load ptr, ptr %12, align 8
  ret ptr %13
}

; Function Attrs: mustprogress nounwind uwtable
define linkonce_odr hidden void @_ZN8pybind114noneD2Ev(ptr noundef nonnull align 8 dereferenceable(8) %0) unnamed_addr #0 comdat align 2 {
  %2 = alloca ptr, align 8
  store ptr %0, ptr %2, align 8
  %3 = load ptr, ptr %2, align 8
  call void @_ZN8pybind116objectD2Ev(ptr noundef nonnull align 8 dereferenceable(8) %3) #16
  ret void
}

; Function Attrs: mustprogress uwtable
define linkonce_odr hidden ptr @_ZN8pybind116object7releaseEv(ptr noundef nonnull align 8 dereferenceable(8) %0) #1 comdat align 2 {
  %2 = alloca %"class.pybind11::handle", align 8
  %3 = alloca ptr, align 8
  %4 = alloca ptr, align 8
  store ptr %0, ptr %3, align 8
  %5 = load ptr, ptr %3, align 8
  %6 = getelementptr inbounds %"class.pybind11::handle", ptr %5, i32 0, i32 0
  %7 = load ptr, ptr %6, align 8
  store ptr %7, ptr %4, align 8
  %8 = getelementptr inbounds %"class.pybind11::handle", ptr %5, i32 0, i32 0
  store ptr null, ptr %8, align 8
  %9 = load ptr, ptr %4, align 8
  call void @_ZN8pybind116handleC2IP7_objectTnNSt9enable_ifIXsr6detail25is_pyobj_ptr_or_nullptr_tIT_EE5valueEiE4typeELi0EEES5_(ptr noundef nonnull align 8 dereferenceable(8) %2, ptr noundef %9)
  %10 = getelementptr inbounds %"class.pybind11::handle", ptr %2, i32 0, i32 0
  %11 = load ptr, ptr %10, align 8
  ret ptr %11
}

; Function Attrs: mustprogress uwtable
define linkonce_odr hidden void @_ZN8pybind114noneC2Ev(ptr noundef nonnull align 8 dereferenceable(8) %0) unnamed_addr #1 comdat align 2 {
  %2 = alloca ptr, align 8
  %3 = alloca %"class.pybind11::handle", align 8
  store ptr %0, ptr %2, align 8
  %4 = load ptr, ptr %2, align 8
  call void @_ZN8pybind116handleC2IP7_objectTnNSt9enable_ifIXsr6detail25is_pyobj_ptr_or_nullptr_tIT_EE5valueEiE4typeELi0EEES5_(ptr noundef nonnull align 8 dereferenceable(8) %3, ptr noundef @_Py_NoneStruct)
  %5 = getelementptr inbounds %"class.pybind11::handle", ptr %3, i32 0, i32 0
  %6 = load ptr, ptr %5, align 8
  call void @_ZN8pybind116objectC2ENS_6handleENS0_10borrowed_tE(ptr noundef nonnull align 8 dereferenceable(8) %4, ptr %6)
  ret void
}

; Function Attrs: mustprogress uwtable
define internal noundef i32 @"_ZNO8pybind116detail15argument_loaderIJEE4callIiNS0_9void_typeERZZ20test_submodule_eval_RNS_7module_EENK3$_0clEvEUlvE_EENSt9enable_ifIXntsr3std7is_voidIT_EE5valueESB_E4typeEOT1_"(ptr noundef nonnull align 1 dereferenceable(1) %0, ptr noundef nonnull align 1 dereferenceable(1) %1) #1 align 2 {
  %3 = alloca ptr, align 8
  %4 = alloca ptr, align 8
  %5 = alloca %"struct.pybind11::detail::void_type", align 1
  store ptr %0, ptr %3, align 8
  store ptr %1, ptr %4, align 8
  %6 = load ptr, ptr %3, align 8
  %7 = load ptr, ptr %4, align 8
  %8 = call noundef i32 @"_ZNO8pybind116detail15argument_loaderIJEE9call_implIiRZZ20test_submodule_eval_RNS_7module_EENK3$_0clEvEUlvE_TpTnmJENS0_9void_typeEEET_OT0_St16integer_sequenceImJXspT1_EEEOT2_"(ptr noundef nonnull align 1 dereferenceable(1) %6, ptr noundef nonnull align 1 dereferenceable(1) %7, ptr noundef nonnull align 1 dereferenceable(1) %5)
  ret i32 %8
}

; Function Attrs: mustprogress nounwind uwtable
define linkonce_odr hidden void @_ZN8pybind116handleC2Ev(ptr noundef nonnull align 8 dereferenceable(8) %0) unnamed_addr #0 comdat align 2 {
  %2 = alloca ptr, align 8
  store ptr %0, ptr %2, align 8
  %3 = load ptr, ptr %2, align 8
  %4 = getelementptr inbounds %"class.pybind11::handle", ptr %3, i32 0, i32 0
  store ptr null, ptr %4, align 8
  ret void
}

; Function Attrs: mustprogress nounwind uwtable
define linkonce_odr hidden noundef zeroext i8 @_ZN8pybind116detail28return_value_policy_overrideIivE6policyENS_19return_value_policyE(i8 noundef zeroext %0) #0 comdat align 2 {
  %2 = alloca i8, align 1
  store i8 %0, ptr %2, align 1
  %3 = load i8, ptr %2, align 1
  ret i8 %3
}

; Function Attrs: mustprogress nounwind uwtable
define linkonce_odr hidden void @_ZN8pybind116detail18process_attributesIJEE7precallERNS0_13function_callE(ptr noundef nonnull align 8 dereferenceable(104) %0) #0 comdat align 2 {
  %2 = alloca ptr, align 8
  %3 = alloca [1 x i32], align 4
  store ptr %0, ptr %2, align 8
  %4 = getelementptr inbounds [1 x i32], ptr %3, i64 0, i64 0
  store i32 0, ptr %4, align 4
  ret void
}

; Function Attrs: mustprogress nounwind uwtable
define linkonce_odr hidden void @_ZN8pybind116handleC2IP7_objectTnNSt9enable_ifIXsr6detail25is_pyobj_ptr_or_nullptr_tIT_EE5valueEiE4typeELi0EEES5_(ptr noundef nonnull align 8 dereferenceable(8) %0, ptr noundef %1) unnamed_addr #0 comdat align 2 {
  %3 = alloca ptr, align 8
  %4 = alloca ptr, align 8
  store ptr %0, ptr %3, align 8
  store ptr %1, ptr %4, align 8
  %5 = load ptr, ptr %3, align 8
  %6 = getelementptr inbounds %"class.pybind11::handle", ptr %5, i32 0, i32 0
  %7 = load ptr, ptr %4, align 8
  store ptr %7, ptr %6, align 8
  ret void
}

; Function Attrs: mustprogress uwtable
define linkonce_odr hidden noundef zeroext i1 @_ZN8pybind116detail15argument_loaderIJEE9load_argsERNS0_13function_callE(ptr noundef nonnull align 1 dereferenceable(1) %0, ptr noundef nonnull align 8 dereferenceable(104) %1) #1 comdat align 2 {
  %3 = alloca ptr, align 8
  %4 = alloca ptr, align 8
  store ptr %0, ptr %3, align 8
  store ptr %1, ptr %4, align 8
  %5 = load ptr, ptr %4, align 8
  %6 = call noundef zeroext i1 @_ZN8pybind116detail15argument_loaderIJEE18load_impl_sequenceERNS0_13function_callESt16integer_sequenceImJEE(ptr noundef nonnull align 8 dereferenceable(104) %5)
  ret i1 %6
}

; Function Attrs: mustprogress uwtable
define internal ptr @"_ZZN8pybind1112cpp_function10initializeIZZ20test_submodule_eval_RNS_7module_EENK3$_0clEvEUlvE_iJEJEEEvOT_PFT0_DpT1_EDpRKT2_ENKUlRNS_6detail13function_callEE_clESJ_"(ptr noundef nonnull align 1 dereferenceable(1) %0, ptr noundef nonnull align 8 dereferenceable(104) %1) #1 align 2 personality ptr @__gxx_personality_v0 {
  %3 = alloca %"class.pybind11::handle", align 8
  %4 = alloca ptr, align 8
  %5 = alloca ptr, align 8
  %6 = alloca %"class.pybind11::detail::argument_loader.343", align 1
  %7 = alloca ptr, align 8
  %8 = alloca ptr, align 8
  %9 = alloca i8, align 1
  %10 = alloca %"class.pybind11::handle", align 8
  %11 = alloca %"class.pybind11::none", align 8
  %12 = alloca ptr, align 8
  %13 = alloca i32, align 4
  %14 = alloca %"class.pybind11::handle", align 8
  %15 = alloca %"class.pybind11::handle", align 8
  %16 = alloca %"class.pybind11::handle", align 8
  store ptr %0, ptr %4, align 8
  store ptr %1, ptr %5, align 8
  %17 = load ptr, ptr %5, align 8
  %18 = call noundef zeroext i1 @_ZN8pybind116detail15argument_loaderIJEE9load_argsERNS0_13function_callE(ptr noundef nonnull align 1 dereferenceable(1) %6, ptr noundef nonnull align 8 dereferenceable(104) %17)
  br i1 %18, label %20, label %19

19:                                               ; preds = %2
  call void @_ZN8pybind116handleC2IP7_objectTnNSt9enable_ifIXsr6detail25is_pyobj_ptr_or_nullptr_tIT_EE5valueEiE4typeELi0EEES5_(ptr noundef nonnull align 8 dereferenceable(8) %3, ptr noundef inttoptr (i64 1 to ptr))
  br label %67

20:                                               ; preds = %2
  %21 = load ptr, ptr %5, align 8
  call void @_ZN8pybind116detail18process_attributesIJEE7precallERNS0_13function_callE(ptr noundef nonnull align 8 dereferenceable(104) %21)
  %22 = load ptr, ptr %5, align 8
  %23 = getelementptr inbounds %"struct.pybind11::detail::function_call", ptr %22, i32 0, i32 0
  %24 = load ptr, ptr %23, align 8
  %25 = getelementptr inbounds %"struct.pybind11::detail::function_record", ptr %24, i32 0, i32 5
  store ptr %25, ptr %7, align 8
  %26 = load ptr, ptr %7, align 8
  store ptr %26, ptr %8, align 8
  %27 = load ptr, ptr %5, align 8
  %28 = getelementptr inbounds %"struct.pybind11::detail::function_call", ptr %27, i32 0, i32 0
  %29 = load ptr, ptr %28, align 8
  %30 = getelementptr inbounds %"struct.pybind11::detail::function_record", ptr %29, i32 0, i32 7
  %31 = load i8, ptr %30, align 8
  %32 = call noundef zeroext i8 @_ZN8pybind116detail28return_value_policy_overrideIivE6policyENS_19return_value_policyE(i8 noundef zeroext %31)
  store i8 %32, ptr %9, align 1
  call void @_ZN8pybind116handleC2Ev(ptr noundef nonnull align 8 dereferenceable(8) %3) #16
  %33 = load ptr, ptr %5, align 8
  %34 = getelementptr inbounds %"struct.pybind11::detail::function_call", ptr %33, i32 0, i32 0
  %35 = load ptr, ptr %34, align 8
  %36 = getelementptr inbounds %"struct.pybind11::detail::function_record", ptr %35, i32 0, i32 8
  %37 = load i16, ptr %36, align 1
  %38 = lshr i16 %37, 5
  %39 = and i16 %38, 1
  %40 = trunc i16 %39 to i1
  br i1 %40, label %41, label %52

41:                                               ; preds = %20
  %42 = load ptr, ptr %8, align 8
  %43 = getelementptr inbounds %struct.capture.347, ptr %42, i32 0, i32 0
  %44 = call noundef i32 @"_ZNO8pybind116detail15argument_loaderIJEE4callIiNS0_9void_typeERZZ20test_submodule_eval_RNS_7module_EENK3$_0clEvEUlvE_EENSt9enable_ifIXntsr3std7is_voidIT_EE5valueESB_E4typeEOT1_"(ptr noundef nonnull align 1 dereferenceable(1) %6, ptr noundef nonnull align 1 dereferenceable(1) %43)
  call void @_ZN8pybind114noneC2Ev(ptr noundef nonnull align 8 dereferenceable(8) %11)
  %45 = invoke ptr @_ZN8pybind116object7releaseEv(ptr noundef nonnull align 8 dereferenceable(8) %11)
          to label %46 unwind label %48

46:                                               ; preds = %41
  %47 = getelementptr inbounds %"class.pybind11::handle", ptr %10, i32 0, i32 0
  store ptr %45, ptr %47, align 8
  call void @llvm.memcpy.p0.p0.i64(ptr align 8 %3, ptr align 8 %10, i64 8, i1 false)
  call void @_ZN8pybind114noneD2Ev(ptr noundef nonnull align 8 dereferenceable(8) %11) #16
  br label %63

48:                                               ; preds = %41
  %49 = landingpad { ptr, i32 }
          cleanup
  %50 = extractvalue { ptr, i32 } %49, 0
  store ptr %50, ptr %12, align 8
  %51 = extractvalue { ptr, i32 } %49, 1
  store i32 %51, ptr %13, align 4
  call void @_ZN8pybind114noneD2Ev(ptr noundef nonnull align 8 dereferenceable(8) %11) #16
  br label %70

52:                                               ; preds = %20
  %53 = load ptr, ptr %8, align 8
  %54 = getelementptr inbounds %struct.capture.347, ptr %53, i32 0, i32 0
  %55 = call noundef i32 @"_ZNO8pybind116detail15argument_loaderIJEE4callIiNS0_9void_typeERZZ20test_submodule_eval_RNS_7module_EENK3$_0clEvEUlvE_EENSt9enable_ifIXntsr3std7is_voidIT_EE5valueESB_E4typeEOT1_"(ptr noundef nonnull align 1 dereferenceable(1) %6, ptr noundef nonnull align 1 dereferenceable(1) %54)
  %56 = load i8, ptr %9, align 1
  %57 = load ptr, ptr %5, align 8
  %58 = getelementptr inbounds %"struct.pybind11::detail::function_call", ptr %57, i32 0, i32 5
  call void @llvm.memcpy.p0.p0.i64(ptr align 8 %15, ptr align 8 %58, i64 8, i1 false)
  %59 = getelementptr inbounds %"class.pybind11::handle", ptr %15, i32 0, i32 0
  %60 = load ptr, ptr %59, align 8
  %61 = call ptr @_ZN8pybind116detail11type_casterIivE4castIiEENSt9enable_ifIXaaaantsr3std17is_floating_pointIT_EE5valuesr3std9is_signedIS5_EE5valuelestS5_Lm8EENS_6handleEE4typeES5_NS_19return_value_policyES6_(i32 noundef %55, i8 noundef zeroext %56, ptr %60)
  %62 = getelementptr inbounds %"class.pybind11::handle", ptr %14, i32 0, i32 0
  store ptr %61, ptr %62, align 8
  call void @llvm.memcpy.p0.p0.i64(ptr align 8 %3, ptr align 8 %14, i64 8, i1 false)
  br label %63

63:                                               ; preds = %52, %46
  %64 = load ptr, ptr %5, align 8
  call void @llvm.memcpy.p0.p0.i64(ptr align 8 %16, ptr align 8 %3, i64 8, i1 false)
  %65 = getelementptr inbounds %"class.pybind11::handle", ptr %16, i32 0, i32 0
  %66 = load ptr, ptr %65, align 8
  call void @_ZN8pybind116detail18process_attributesIJEE8postcallERNS0_13function_callENS_6handleE(ptr noundef nonnull align 8 dereferenceable(104) %64, ptr %66)
  br label %67

67:                                               ; preds = %63, %19
  %68 = getelementptr inbounds %"class.pybind11::handle", ptr %3, i32 0, i32 0
  %69 = load ptr, ptr %68, align 8
  ret ptr %69

70:                                               ; preds = %48
  %71 = load ptr, ptr %12, align 8
  %72 = load i32, ptr %13, align 4
  %73 = insertvalue { ptr, i32 } poison, ptr %71, 0
  %74 = insertvalue { ptr, i32 } %73, i32 %72, 1
  resume { ptr, i32 } %74
}

; Function Attrs: mustprogress uwtable
define internal ptr @"_ZZN8pybind1112cpp_function10initializeIZZ20test_submodule_eval_RNS_7module_EENK3$_0clEvEUlvE_iJEJEEEvOT_PFT0_DpT1_EDpRKT2_ENUlRNS_6detail13function_callEE_8__invokeESJ_"(ptr noundef nonnull align 8 dereferenceable(104) %0) #1 align 2 {
  %2 = alloca %"class.pybind11::handle", align 8
  %3 = alloca ptr, align 8
  %4 = alloca %class.anon.348, align 1
  %5 = alloca %"class.pybind11::handle", align 8
  store ptr %0, ptr %3, align 8
  %6 = load ptr, ptr %3, align 8
  %7 = call ptr @"_ZZN8pybind1112cpp_function10initializeIZZ20test_submodule_eval_RNS_7module_EENK3$_0clEvEUlvE_iJEJEEEvOT_PFT0_DpT1_EDpRKT2_ENKUlRNS_6detail13function_callEE_clESJ_"(ptr noundef nonnull align 1 dereferenceable(1) %4, ptr noundef nonnull align 8 dereferenceable(104) %6)
  %8 = getelementptr inbounds %"class.pybind11::handle", ptr %5, i32 0, i32 0
  store ptr %7, ptr %8, align 8
  call void @llvm.memcpy.p0.p0.i64(ptr align 8 %2, ptr align 8 %5, i64 8, i1 false)
  %9 = getelementptr inbounds %"class.pybind11::handle", ptr %2, i32 0, i32 0
  %10 = load ptr, ptr %9, align 8
  ret ptr %10
}