; Function Attrs: mustprogress uwtable
define internal ptr @"_ZZN8pybind1112cpp_function10initializeIZZ20test_submodule_eval_RNS_7module_EENK3$_0clEvEUlvE_iJEJEEEvOT_PFT0_DpT1_EDpRKT2_ENUlRNS_6detail13function_callEE_8__invokeESJ_"(ptr nocapture noundef nonnull readonly align 8 dereferenceable(104) %0) #1 align 2 personality ptr @__gxx_personality_v0 {
  %.val = load ptr, ptr %0, align 8
  %2 = getelementptr inbounds i8, ptr %.val, i64 89
  %3 = load i16, ptr %2, align 1
  %4 = and i16 %3, 32
  %.not.i = icmp eq i16 %4, 0
  br i1 %.not.i, label %7, label %_ZN8pybind114noneD2Ev.exit.i

_ZN8pybind114noneD2Ev.exit.i:                     ; preds = %1
  %5 = load i64, ptr @_Py_NoneStruct, align 8
  %6 = add nsw i64 %5, 1
  store i64 %6, ptr @_Py_NoneStruct, align 8
  br label %"_ZZN8pybind1112cpp_function10initializeIZZ20test_submodule_eval_RNS_7module_EENK3$_0clEvEUlvE_iJEJEEEvOT_PFT0_DpT1_EDpRKT2_ENKUlRNS_6detail13function_callEE_clESJ_.exit"

7:                                                ; preds = %1
  %8 = tail call ptr @PyLong_FromSsize_t(i64 noundef 42)
  br label %"_ZZN8pybind1112cpp_function10initializeIZZ20test_submodule_eval_RNS_7module_EENK3$_0clEvEUlvE_iJEJEEEvOT_PFT0_DpT1_EDpRKT2_ENKUlRNS_6detail13function_callEE_clESJ_.exit"

"_ZZN8pybind1112cpp_function10initializeIZZ20test_submodule_eval_RNS_7module_EENK3$_0clEvEUlvE_iJEJEEEvOT_PFT0_DpT1_EDpRKT2_ENKUlRNS_6detail13function_callEE_clESJ_.exit": ; preds = %_ZN8pybind114noneD2Ev.exit.i, %7
  %.sroa.0.0.i = phi ptr [ %8, %7 ], [ @_Py_NoneStruct, %_ZN8pybind114noneD2Ev.exit.i ]
  ret ptr %.sroa.0.0.i
}